; ModuleID = '49/1318.c'
source_filename = "49/1318.c"
target datalayout = "e-m:e-p270:32:32-p271:32:32-p272:64:64-i64:64-f80:128-n8:16:32:64-S128"
target triple = "x86_64-pc-linux-gnu"

@.str = private unnamed_addr constant [4 x i8] c"%s\0A\00", align 1

; Function Attrs: noinline nounwind uwtable
define dso_local i32 @f(i8* %0, i32 %1) #0 {
  %3 = alloca i32, align 4
  %4 = alloca i8*, align 8
  %5 = alloca i32, align 4
  %6 = alloca i32, align 4
  store i8* %0, i8** %4, align 8
  store i32 %1, i32* %5, align 4
  store i32 0, i32* %6, align 4
  br label %7

7:                                                ; preds = %31, %2
  %8 = load i32, i32* %6, align 4
  %9 = load i32, i32* %5, align 4
  %10 = sdiv i32 %9, 2
  %11 = icmp sle i32 %8, %10
  br i1 %11, label %12, label %34

12:                                               ; preds = %7
  %13 = load i8*, i8** %4, align 8
  %14 = load i32, i32* %6, align 4
  %15 = sext i32 %14 to i64
  %16 = getelementptr inbounds i8, i8* %13, i64 %15
  %17 = load i8, i8* %16, align 1
  %18 = sext i8 %17 to i32
  %19 = load i8*, i8** %4, align 8
  %20 = load i32, i32* %5, align 4
  %21 = sub nsw i32 %20, 1
  %22 = load i32, i32* %6, align 4
  %23 = sub nsw i32 %21, %22
  %24 = sext i32 %23 to i64
  %25 = getelementptr inbounds i8, i8* %19, i64 %24
  %26 = load i8, i8* %25, align 1
  %27 = sext i8 %26 to i32
  %28 = icmp ne i32 %18, %27
  br i1 %28, label %29, label %30

29:                                               ; preds = %12
  store i32 0, i32* %3, align 4
  br label %35

30:                                               ; preds = %12
  br label %31

31:                                               ; preds = %30
  %32 = load i32, i32* %6, align 4
  %33 = add nsw i32 %32, 1
  store i32 %33, i32* %6, align 4
  br label %7

34:                                               ; preds = %7
  store i32 1, i32* %3, align 4
  br label %35

35:                                               ; preds = %34, %29
  %36 = load i32, i32* %3, align 4
  ret i32 %36
}

; Function Attrs: noinline nounwind uwtable
define dso_local i32 @main() #0 {
  %1 = alloca i32, align 4
  %2 = alloca [500 x i8], align 16
  %3 = alloca [1000 x [500 x i8]], align 16
  %4 = alloca i32, align 4
  %5 = alloca i32, align 4
  %6 = alloca [1000 x i32], align 16
  %7 = alloca i32, align 4
  %8 = alloca i32, align 4
  %9 = alloca i32, align 4
  store i32 0, i32* %1, align 4
  %10 = getelementptr inbounds [500 x i8], [500 x i8]* %2, i64 0, i64 0
  %11 = call i32 (i8*, ...) bitcast (i32 (...)* @gets to i32 (i8*, ...)*)(i8* %10)
  store i32 0, i32* %9, align 4
  %12 = getelementptr inbounds [500 x i8], [500 x i8]* %2, i64 0, i64 0
  %13 = call i64 @strlen(i8* %12) #3
  %14 = trunc i64 %13 to i32
  store i32 %14, i32* %7, align 4
  store i32 2, i32* %4, align 4
  br label %15

15:                                               ; preds = %72, %0
  %16 = load i32, i32* %4, align 4
  %17 = load i32, i32* %7, align 4
  %18 = icmp sle i32 %16, %17
  br i1 %18, label %19, label %75

19:                                               ; preds = %15
  store i32 0, i32* %5, align 4
  br label %20

20:                                               ; preds = %68, %19
  %21 = load i32, i32* %5, align 4
  %22 = load i32, i32* %7, align 4
  %23 = load i32, i32* %4, align 4
  %24 = sub nsw i32 %22, %23
  %25 = icmp sle i32 %21, %24
  br i1 %25, label %26, label %71

26:                                               ; preds = %20
  store i32 0, i32* %8, align 4
  br label %27

27:                                               ; preds = %51, %26
  %28 = load i32, i32* %8, align 4
  %29 = load i32, i32* %4, align 4
  %30 = icmp slt i32 %28, %29
  br i1 %30, label %31, label %54

31:                                               ; preds = %27
  %32 = load i32, i32* %8, align 4
  %33 = load i32, i32* %5, align 4
  %34 = add nsw i32 %32, %33
  %35 = sext i32 %34 to i64
  %36 = getelementptr inbounds [500 x i8], [500 x i8]* %2, i64 0, i64 %35
  %37 = load i8, i8* %36, align 1
  %38 = load i32, i32* %9, align 4
  %39 = sext i32 %38 to i64
  %40 = getelementptr inbounds [1000 x [500 x i8]], [1000 x [500 x i8]]* %3, i64 0, i64 %39
  %41 = load i32, i32* %8, align 4
  %42 = sext i32 %41 to i64
  %43 = getelementptr inbounds [500 x i8], [500 x i8]* %40, i64 0, i64 %42
  store i8 %37, i8* %43, align 1
  %44 = load i32, i32* %9, align 4
  %45 = sext i32 %44 to i64
  %46 = getelementptr inbounds [1000 x [500 x i8]], [1000 x [500 x i8]]* %3, i64 0, i64 %45
  %47 = load i32, i32* %8, align 4
  %48 = add nsw i32 %47, 1
  %49 = sext i32 %48 to i64
  %50 = getelementptr inbounds [500 x i8], [500 x i8]* %46, i64 0, i64 %49
  store i8 0, i8* %50, align 1
  br label %51

51:                                               ; preds = %31
  %52 = load i32, i32* %8, align 4
  %53 = add nsw i32 %52, 1
  store i32 %53, i32* %8, align 4
  br label %27

54:                                               ; preds = %27
  %55 = load i32, i32* %9, align 4
  %56 = add nsw i32 %55, 1
  store i32 %56, i32* %9, align 4
  %57 = load i32, i32* %9, align 4
  %58 = sub nsw i32 %57, 1
  %59 = sext i32 %58 to i64
  %60 = getelementptr inbounds [1000 x [500 x i8]], [1000 x [500 x i8]]* %3, i64 0, i64 %59
  %61 = getelementptr inbounds [500 x i8], [500 x i8]* %60, i64 0, i64 0
  %62 = call i64 @strlen(i8* %61) #3
  %63 = trunc i64 %62 to i32
  %64 = load i32, i32* %9, align 4
  %65 = sub nsw i32 %64, 1
  %66 = sext i32 %65 to i64
  %67 = getelementptr inbounds [1000 x i32], [1000 x i32]* %6, i64 0, i64 %66
  store i32 %63, i32* %67, align 4
  br label %68

68:                                               ; preds = %54
  %69 = load i32, i32* %5, align 4
  %70 = add nsw i32 %69, 1
  store i32 %70, i32* %5, align 4
  br label %20

71:                                               ; preds = %20
  br label %72

72:                                               ; preds = %71
  %73 = load i32, i32* %4, align 4
  %74 = add nsw i32 %73, 1
  store i32 %74, i32* %4, align 4
  br label %15

75:                                               ; preds = %15
  store i32 0, i32* %4, align 4
  br label %76

76:                                               ; preds = %98, %75
  %77 = load i32, i32* %4, align 4
  %78 = load i32, i32* %9, align 4
  %79 = icmp slt i32 %77, %78
  br i1 %79, label %80, label %101

80:                                               ; preds = %76
  %81 = load i32, i32* %4, align 4
  %82 = sext i32 %81 to i64
  %83 = getelementptr inbounds [1000 x [500 x i8]], [1000 x [500 x i8]]* %3, i64 0, i64 %82
  %84 = getelementptr inbounds [500 x i8], [500 x i8]* %83, i64 0, i64 0
  %85 = load i32, i32* %4, align 4
  %86 = sext i32 %85 to i64
  %87 = getelementptr inbounds [1000 x i32], [1000 x i32]* %6, i64 0, i64 %86
  %88 = load i32, i32* %87, align 4
  %89 = call i32 @f(i8* %84, i32 %88)
  %90 = icmp ne i32 %89, 0
  br i1 %90, label %91, label %97

91:                                               ; preds = %80
  %92 = load i32, i32* %4, align 4
  %93 = sext i32 %92 to i64
  %94 = getelementptr inbounds [1000 x [500 x i8]], [1000 x [500 x i8]]* %3, i64 0, i64 %93
  %95 = getelementptr inbounds [500 x i8], [500 x i8]* %94, i64 0, i64 0
  %96 = call i32 (i8*, ...) @printf(i8* getelementptr inbounds ([4 x i8], [4 x i8]* @.str, i64 0, i64 0), i8* %95)
  br label %97

97:                                               ; preds = %91, %80
  br label %98

98:                                               ; preds = %97
  %99 = load i32, i32* %4, align 4
  %100 = add nsw i32 %99, 1
  store i32 %100, i32* %4, align 4
  br label %76

101:                                              ; preds = %76
  ret i32 0
}

declare dso_local i32 @gets(...) #1

; Function Attrs: nounwind readonly
declare dso_local i64 @strlen(i8*) #2

declare dso_local i32 @printf(i8*, ...) #1


!llvm.module.flags = !{!0}
!llvm.ident = !{!1}

!0 = !{i32 1, !"wchar_size", i32 4}
!1 = !{!"clang version 10.0.0-4ubuntu1 "}
